target datalayout = "e-m:e-p270:32:32-p271:32:32-p272:64:64-i64:64-i128:128-f80:128-n8:16:32:64-S128"
target triple = "x86_64-pc-linux-gnu"

%"class.zmq::msg_t" = type { %union.anon }
%union.anon = type { %struct.anon }
%struct.anon = type { ptr, [34 x i8], i8, i8, i32, %"union.zmq::msg_t::group_t" }
%"union.zmq::msg_t::group_t" = type { %struct.anon.1 }
%struct.anon.1 = type { i8, ptr }

; Function Attrs: mustprogress nounwind uwtable
define linkonce_odr noundef zeroext i1 @_ZNK3zmq5msg_t9is_cancelEv(ptr noundef nonnull align 8 dereferenceable(64) %0) #0 comdat align 2 {
  %2 = alloca ptr, align 8
  store ptr %0, ptr %2, align 8, !tbaa !3
  %3 = load ptr, ptr %2, align 8
  %4 = getelementptr inbounds nuw %"class.zmq::msg_t", ptr %3, i32 0, i32 0
  %5 = getelementptr inbounds nuw %struct.anon, ptr %4, i32 0, i32 3
  %6 = load i8, ptr %5, align 1, !tbaa !8
  %7 = zext i8 %6 to i32
  %8 = and i32 %7, 28
  %9 = icmp eq i32 %8, 16
  ret i1 %9
}

; Function Attrs: mustprogress nounwind uwtable
define linkonce_odr noundef zeroext i1 @_ZNK3zmq5msg_t12is_subscribeEv(ptr noundef nonnull align 8 dereferenceable(64) %0) #0 comdat align 2 {
  %2 = alloca ptr, align 8
  store ptr %0, ptr %2, align 8, !tbaa !3
  %3 = load ptr, ptr %2, align 8
  %4 = getelementptr inbounds nuw %"class.zmq::msg_t", ptr %3, i32 0, i32 0
  %5 = getelementptr inbounds nuw %struct.anon, ptr %4, i32 0, i32 3
  %6 = load i8, ptr %5, align 1, !tbaa !8
  %7 = zext i8 %6 to i32
  %8 = and i32 %7, 28
  %9 = icmp eq i32 %8, 12
  ret i1 %9
}

; Function Attrs: mustprogress nounwind uwtable
define noundef zeroext i8 @_ZNK3zmq5msg_t5flagsEv(ptr noundef nonnull align 8 dereferenceable(64) %0) #0 align 2 {
  %2 = alloca ptr, align 8
  store ptr %0, ptr %2, align 8, !tbaa !3
  %3 = load ptr, ptr %2, align 8
  %4 = getelementptr inbounds nuw %"class.zmq::msg_t", ptr %3, i32 0, i32 0
  %5 = getelementptr inbounds nuw %struct.anon, ptr %4, i32 0, i32 3
  %6 = load i8, ptr %5, align 1, !tbaa !8
  ret i8 %6
}

; Function Attrs: mustprogress nounwind uwtable
define noundef zeroext i1 @_ZNK3zmq5msg_t7is_pongEv(ptr noundef nonnull align 8 dereferenceable(64) %0) #0 align 2 {
  %2 = alloca ptr, align 8
  store ptr %0, ptr %2, align 8, !tbaa !3
  %3 = load ptr, ptr %2, align 8
  %4 = getelementptr inbounds nuw %"class.zmq::msg_t", ptr %3, i32 0, i32 0
  %5 = getelementptr inbounds nuw %struct.anon, ptr %4, i32 0, i32 3
  %6 = load i8, ptr %5, align 1, !tbaa !8
  %7 = zext i8 %6 to i32
  %8 = and i32 %7, 28
  %9 = icmp eq i32 %8, 8
  ret i1 %9
}

; Function Attrs: mustprogress nounwind uwtable
define noundef zeroext i1 @_ZNK3zmq5msg_t7is_pingEv(ptr noundef nonnull align 8 dereferenceable(64) %0) #0 align 2 {
  %2 = alloca ptr, align 8
  store ptr %0, ptr %2, align 8, !tbaa !3
  %3 = load ptr, ptr %2, align 8
  %4 = getelementptr inbounds nuw %"class.zmq::msg_t", ptr %3, i32 0, i32 0
  %5 = getelementptr inbounds nuw %struct.anon, ptr %4, i32 0, i32 3
  %6 = load i8, ptr %5, align 1, !tbaa !8
  %7 = zext i8 %6 to i32
  %8 = and i32 %7, 28
  %9 = icmp eq i32 %8, 4
  ret i1 %9
}

; Function Attrs: mustprogress uwtable
define noundef ptr @_ZN3zmq5msg_t12command_bodyEv(ptr noundef nonnull align 8 dereferenceable(64) %0) #1 align 2 {
  %2 = alloca ptr, align 8
  %3 = alloca ptr, align 8
  store ptr %0, ptr %2, align 8, !tbaa !3
  %4 = load ptr, ptr %2, align 8
  call void @llvm.lifetime.start.p0(i64 8, ptr %3) #14
  store ptr null, ptr %3, align 8, !tbaa !28
  %5 = call noundef zeroext i1 @_ZNK3zmq5msg_t7is_pingEv(ptr noundef nonnull align 8 dereferenceable(64) %4)
  br i1 %5, label %8, label %6

6:                                                ; preds = %1
  %7 = call noundef zeroext i1 @_ZNK3zmq5msg_t7is_pongEv(ptr noundef nonnull align 8 dereferenceable(64) %4)
  br i1 %7, label %8, label %11

8:                                                ; preds = %6, %1
  %9 = call noundef ptr @_ZN3zmq5msg_t4dataEv(ptr noundef nonnull align 8 dereferenceable(64) %4)
  %10 = getelementptr inbounds i8, ptr %9, i64 5
  store ptr %10, ptr %3, align 8, !tbaa !28
  br label %35

11:                                               ; preds = %6
  %12 = call noundef zeroext i8 @_ZNK3zmq5msg_t5flagsEv(ptr noundef nonnull align 8 dereferenceable(64) %4)
  %13 = zext i8 %12 to i32
  %14 = and i32 %13, 2
  %15 = icmp ne i32 %14, 0
  br i1 %15, label %22, label %16

16:                                               ; preds = %11
  %17 = call noundef zeroext i1 @_ZNK3zmq5msg_t12is_subscribeEv(ptr noundef nonnull align 8 dereferenceable(64) %4)
  br i1 %17, label %20, label %18

18:                                               ; preds = %16
  %19 = call noundef zeroext i1 @_ZNK3zmq5msg_t9is_cancelEv(ptr noundef nonnull align 8 dereferenceable(64) %4)
  br i1 %19, label %20, label %22

20:                                               ; preds = %18, %16
  %21 = call noundef ptr @_ZN3zmq5msg_t4dataEv(ptr noundef nonnull align 8 dereferenceable(64) %4)
  store ptr %21, ptr %3, align 8, !tbaa !28
  br label %34

22:                                               ; preds = %18, %11
  %23 = call noundef zeroext i1 @_ZNK3zmq5msg_t12is_subscribeEv(ptr noundef nonnull align 8 dereferenceable(64) %4)
  br i1 %23, label %24, label %27

24:                                               ; preds = %22
  %25 = call noundef ptr @_ZN3zmq5msg_t4dataEv(ptr noundef nonnull align 8 dereferenceable(64) %4)
  %26 = getelementptr inbounds i8, ptr %25, i64 10
  store ptr %26, ptr %3, align 8, !tbaa !28
  br label %33

27:                                               ; preds = %22
  %28 = call noundef zeroext i1 @_ZNK3zmq5msg_t9is_cancelEv(ptr noundef nonnull align 8 dereferenceable(64) %4)
  br i1 %28, label %29, label %32

29:                                               ; preds = %27
  %30 = call noundef ptr @_ZN3zmq5msg_t4dataEv(ptr noundef nonnull align 8 dereferenceable(64) %4)
  %31 = getelementptr inbounds i8, ptr %30, i64 7
  store ptr %31, ptr %3, align 8, !tbaa !28
  br label %32

32:                                               ; preds = %29, %27
  br label %33

33:                                               ; preds = %32, %24
  br label %34

34:                                               ; preds = %33, %20
  br label %35

35:                                               ; preds = %34, %8
  %36 = load ptr, ptr %3, align 8, !tbaa !28
  call void @llvm.lifetime.end.p0(i64 8, ptr %3) #14
  ret ptr %36
}