; Function Attrs: mustprogress uwtable
define noundef ptr @_ZN3zmq5msg_t12command_bodyEv(ptr noundef nonnull align 8 dereferenceable(64) %0) local_unnamed_addr #1 align 2 {
  %2 = getelementptr inbounds nuw i8, ptr %0, i64 43
  %3 = load i8, ptr %2, align 1, !tbaa !3
  %4 = and i8 %3, 28
  switch i8 %4, label %8 [
    i8 4, label %5
    i8 8, label %5
  ]

5:                                                ; preds = %1, %1
  %6 = tail call noundef ptr @_ZN3zmq5msg_t4dataEv(ptr noundef nonnull align 8 dereferenceable(64) %0)
  %7 = getelementptr inbounds nuw i8, ptr %6, i64 5
  br label %20

8:                                                ; preds = %1
  %9 = and i8 %3, 2
  %.not = icmp eq i8 %9, 0
  br i1 %.not, label %10, label %13

10:                                               ; preds = %8
  switch i8 %4, label %20 [
    i8 12, label %11
    i8 16, label %11
  ]

11:                                               ; preds = %10, %10
  %12 = tail call noundef ptr @_ZN3zmq5msg_t4dataEv(ptr noundef nonnull align 8 dereferenceable(64) %0)
  br label %20

13:                                               ; preds = %8
  switch i8 %4, label %20 [
    i8 12, label %14
    i8 16, label %17
  ]

14:                                               ; preds = %13
  %15 = tail call noundef ptr @_ZN3zmq5msg_t4dataEv(ptr noundef nonnull align 8 dereferenceable(64) %0)
  %16 = getelementptr inbounds nuw i8, ptr %15, i64 10
  br label %20

17:                                               ; preds = %13
  %18 = tail call noundef ptr @_ZN3zmq5msg_t4dataEv(ptr noundef nonnull align 8 dereferenceable(64) %0)
  %19 = getelementptr inbounds nuw i8, ptr %18, i64 7
  br label %20

20:                                               ; preds = %10, %13, %11, %17, %14, %5
  %.0 = phi ptr [ %7, %5 ], [ %16, %14 ], [ %19, %17 ], [ %12, %11 ], [ null, %13 ], [ null, %10 ]
  ret ptr %.0
}